; Function Attrs: nounwind uwtable
define noundef nonnull ptr @l_Array_anyMUnsafe_any___at_Lean_Linter_UnusedVariables_collectReferences_go___spec__14___boxed(ptr noundef %0, ptr noundef %1, ptr noundef %2) local_unnamed_addr #1 {
  %4 = getelementptr i8, ptr %1, i64 8
  %.val15 = load i64, ptr %4, align 8, !tbaa !12
  %5 = ptrtoint ptr %1 to i64
  %6 = and i64 %5, 1
  %.not = icmp eq i64 %6, 0
  br i1 %.not, label %7, label %lean_dec.exit10

7:                                                ; preds = %3
  %8 = load i32, ptr %1, align 4, !tbaa !8
  %9 = icmp sgt i32 %8, 1
  br i1 %9, label %10, label %12, !prof !11

10:                                               ; preds = %7
  %11 = add nsw i32 %8, -1
  store i32 %11, ptr %1, align 4, !tbaa !8
  br label %lean_dec.exit10

12:                                               ; preds = %7
  %.not.i = icmp eq i32 %8, 0
  br i1 %.not.i, label %lean_dec.exit10, label %13

13:                                               ; preds = %12
  tail call void @lean_dec_ref_cold(ptr noundef nonnull %1) #7
  br label %lean_dec.exit10

lean_dec.exit10:                                  ; preds = %13, %12, %10, %3
  %14 = getelementptr i8, ptr %2, i64 8
  %.val = load i64, ptr %14, align 8, !tbaa !12
  %15 = ptrtoint ptr %2 to i64
  %16 = and i64 %15, 1
  %.not17 = icmp eq i64 %16, 0
  br i1 %.not17, label %17, label %lean_dec.exit9

17:                                               ; preds = %lean_dec.exit10
  %18 = load i32, ptr %2, align 4, !tbaa !8
  %19 = icmp sgt i32 %18, 1
  br i1 %19, label %20, label %22, !prof !11

20:                                               ; preds = %17
  %21 = add nsw i32 %18, -1
  store i32 %21, ptr %2, align 4, !tbaa !8
  br label %lean_dec.exit9

22:                                               ; preds = %17
  %.not.i11 = icmp eq i32 %18, 0
  br i1 %.not.i11, label %lean_dec.exit9, label %23

23:                                               ; preds = %22
  tail call void @lean_dec_ref_cold(ptr noundef nonnull %2) #7
  br label %lean_dec.exit9

lean_dec.exit9:                                   ; preds = %23, %22, %20, %lean_dec.exit10
  %.not29.i = icmp eq i64 %.val15, %.val
  br i1 %.not29.i, label %l_Array_anyMUnsafe_any___at_Lean_Linter_UnusedVariables_collectReferences_go___spec__14.exit, label %.lr.ph.i

.lr.ph.i:                                         ; preds = %lean_dec.exit9
  %24 = getelementptr inbounds nuw i8, ptr %0, i64 24
  br label %25

25:                                               ; preds = %lean_dec.exit.i, %.lr.ph.i
  %.01530.i = phi i64 [ %.val15, %.lr.ph.i ], [ %50, %lean_dec.exit.i ]
  %26 = getelementptr inbounds nuw [0 x ptr], ptr %24, i64 0, i64 %.01530.i
  %27 = load ptr, ptr %26, align 8, !tbaa !4
  %28 = ptrtoint ptr %27 to i64
  %29 = and i64 %28, 1
  %.not.i20.i = icmp eq i64 %29, 0
  br i1 %.not.i20.i, label %30, label %lean_array_uget.exit.i

30:                                               ; preds = %25
  %.val.i.i.i = load i32, ptr %27, align 4, !tbaa !8
  %31 = icmp sgt i32 %.val.i.i.i, 0
  br i1 %31, label %32, label %34, !prof !11

32:                                               ; preds = %30
  %33 = add nuw i32 %.val.i.i.i, 1
  store i32 %33, ptr %27, align 4, !tbaa !8
  br label %lean_array_uget.exit.i

34:                                               ; preds = %30
  %.not.i.i.i = icmp eq i32 %.val.i.i.i, 0
  br i1 %.not.i.i.i, label %lean_array_uget.exit.i, label %35

35:                                               ; preds = %34
  tail call void @lean_inc_ref_cold(ptr noundef nonnull %27) #7
  br label %lean_array_uget.exit.i

lean_array_uget.exit.i:                           ; preds = %35, %34, %32, %25
  %36 = load ptr, ptr @l_Array_anyMUnsafe_any___at_Lean_Linter_UnusedVariables_collectReferences_go___spec__14___closed__1, align 8, !tbaa !4
  %37 = tail call ptr @l_Lean_Elab_InfoTree_findInfo_x3f(ptr noundef %36, ptr noundef %27) #7
  %38 = ptrtoint ptr %37 to i64
  %39 = and i64 %38, 1
  %.not.i21.i = icmp eq i64 %39, 0
  br i1 %.not.i21.i, label %lean_obj_tag.exit.thread.i, label %lean_obj_tag.exit.i

lean_obj_tag.exit.i:                              ; preds = %lean_array_uget.exit.i
  %40 = and i64 %38, 8589934590
  %41 = icmp eq i64 %40, 0
  br i1 %41, label %lean_dec.exit.i, label %l_Array_anyMUnsafe_any___at_Lean_Linter_UnusedVariables_collectReferences_go___spec__14.exit

lean_obj_tag.exit.thread.i:                       ; preds = %lean_array_uget.exit.i
  %42 = getelementptr i8, ptr %37, i64 4
  %.val.i.i = load i32, ptr %42, align 4
  %43 = icmp ult i32 %.val.i.i, 16777216
  br i1 %43, label %lean_dec.exit.i, label %.thread.i

.thread.i:                                        ; preds = %lean_obj_tag.exit.thread.i
  %44 = load i32, ptr %37, align 4, !tbaa !8
  %45 = icmp sgt i32 %44, 1
  br i1 %45, label %46, label %48, !prof !11

46:                                               ; preds = %.thread.i
  %47 = add nsw i32 %44, -1
  store i32 %47, ptr %37, align 4, !tbaa !8
  br label %l_Array_anyMUnsafe_any___at_Lean_Linter_UnusedVariables_collectReferences_go___spec__14.exit

48:                                               ; preds = %.thread.i
  %.not.i.i = icmp eq i32 %44, 0
  br i1 %.not.i.i, label %l_Array_anyMUnsafe_any___at_Lean_Linter_UnusedVariables_collectReferences_go___spec__14.exit, label %49

49:                                               ; preds = %48
  tail call void @lean_dec_ref_cold(ptr noundef nonnull %37) #7
  br label %l_Array_anyMUnsafe_any___at_Lean_Linter_UnusedVariables_collectReferences_go___spec__14.exit

lean_dec.exit.i:                                  ; preds = %lean_obj_tag.exit.thread.i, %lean_obj_tag.exit.i
  %50 = add i64 %.01530.i, 1
  %.not.i16 = icmp eq i64 %50, %.val
  br i1 %.not.i16, label %l_Array_anyMUnsafe_any___at_Lean_Linter_UnusedVariables_collectReferences_go___spec__14.exit, label %25

l_Array_anyMUnsafe_any___at_Lean_Linter_UnusedVariables_collectReferences_go___spec__14.exit: ; preds = %lean_obj_tag.exit.i, %lean_dec.exit.i, %lean_dec.exit9, %46, %48, %49
  %.2.ph.i = phi i64 [ 3, %46 ], [ 3, %48 ], [ 3, %49 ], [ 1, %lean_dec.exit9 ], [ 3, %lean_obj_tag.exit.i ], [ 1, %lean_dec.exit.i ]
  %51 = ptrtoint ptr %0 to i64
  %52 = and i64 %51, 1
  %.not18 = icmp eq i64 %52, 0
  br i1 %.not18, label %53, label %lean_dec.exit

53:                                               ; preds = %l_Array_anyMUnsafe_any___at_Lean_Linter_UnusedVariables_collectReferences_go___spec__14.exit
  %54 = load i32, ptr %0, align 4, !tbaa !8
  %55 = icmp sgt i32 %54, 1
  br i1 %55, label %56, label %58, !prof !11

56:                                               ; preds = %53
  %57 = add nsw i32 %54, -1
  store i32 %57, ptr %0, align 4, !tbaa !8
  br label %lean_dec.exit

58:                                               ; preds = %53
  %.not.i13 = icmp eq i32 %54, 0
  br i1 %.not.i13, label %lean_dec.exit, label %59

59:                                               ; preds = %58
  tail call void @lean_dec_ref_cold(ptr noundef nonnull %0) #7
  br label %lean_dec.exit

lean_dec.exit:                                    ; preds = %59, %58, %56, %l_Array_anyMUnsafe_any___at_Lean_Linter_UnusedVariables_collectReferences_go___spec__14.exit
  %60 = inttoptr i64 %.2.ph.i to ptr
  ret ptr %60
}